target datalayout = "e-m:e-p270:32:32-p271:32:32-p272:64:64-i64:64-i128:128-f80:128-n8:16:32:64-S128"
target triple = "x86_64-pc-linux-gnu"

%"class.std::ios_base::Init" = type { i8 }
%"class.Imf_3_4::DeepScanLineOutputPart" = type { ptr }

@_ZStL8__ioinit = internal global %"class.std::ios_base::Init" zeroinitializer, align 1
@__dso_handle = external hidden global i8
@llvm.global_ctors = appending global [1 x { i32, ptr, ptr }] [{ i32, ptr, ptr } { i32 65535, ptr @_GLOBAL__sub_I_ImfDeepScanLineOutputPart.cpp, ptr null }]

@_ZN7Imf_3_422DeepScanLineOutputPartC1ERNS_19MultiPartOutputFileEi = unnamed_addr alias void (ptr, ptr, i32), ptr @_ZN7Imf_3_422DeepScanLineOutputPartC2ERNS_19MultiPartOutputFileEi

; Function Attrs: uwtable
define internal void @__cxx_global_var_init() #0 section ".text.startup" {
  call void @_ZNSt8ios_base4InitC1Ev(ptr noundef nonnull align 1 dereferenceable(1) @_ZStL8__ioinit)
  %1 = call i32 @__cxa_atexit(ptr @_ZNSt8ios_base4InitD1Ev, ptr @_ZStL8__ioinit, ptr @__dso_handle) #3
  ret void
}

declare void @_ZNSt8ios_base4InitC1Ev(ptr noundef nonnull align 1 dereferenceable(1)) unnamed_addr #1

; Function Attrs: nounwind
declare void @_ZNSt8ios_base4InitD1Ev(ptr noundef nonnull align 1 dereferenceable(1)) unnamed_addr #2

; Function Attrs: nounwind
declare i32 @__cxa_atexit(ptr, ptr, ptr) #3

; Function Attrs: mustprogress uwtable
define void @_ZN7Imf_3_422DeepScanLineOutputPartC2ERNS_19MultiPartOutputFileEi(ptr noundef nonnull align 8 dereferenceable(8) %0, ptr noundef nonnull align 8 dereferenceable(16) %1, i32 noundef %2) unnamed_addr #4 align 2 {
  %4 = alloca ptr, align 8
  %5 = alloca ptr, align 8
  %6 = alloca i32, align 4
  store ptr %0, ptr %4, align 8, !tbaa !3
  store ptr %1, ptr %5, align 8, !tbaa !8
  store i32 %2, ptr %6, align 4, !tbaa !10
  %7 = load ptr, ptr %4, align 8
  %8 = load ptr, ptr %5, align 8, !tbaa !8
  %9 = load i32, ptr %6, align 4, !tbaa !10
  %10 = call noundef ptr @_ZN7Imf_3_419MultiPartOutputFile13getOutputPartINS_22DeepScanLineOutputFileEEEPT_i(ptr noundef nonnull align 8 dereferenceable(16) %8, i32 noundef %9)
  %11 = getelementptr inbounds nuw %"class.Imf_3_4::DeepScanLineOutputPart", ptr %7, i32 0, i32 0
  store ptr %10, ptr %11, align 8, !tbaa !12
  ret void
}

declare hidden noundef ptr @_ZN7Imf_3_419MultiPartOutputFile13getOutputPartINS_22DeepScanLineOutputFileEEEPT_i(ptr noundef nonnull align 8 dereferenceable(16), i32 noundef) #1

; Function Attrs: mustprogress uwtable
define noundef ptr @_ZNK7Imf_3_422DeepScanLineOutputPart8fileNameEv(ptr noundef nonnull align 8 dereferenceable(8) %0) #4 align 2 {
  %2 = alloca ptr, align 8
  store ptr %0, ptr %2, align 8, !tbaa !3
  %3 = load ptr, ptr %2, align 8
  %4 = getelementptr inbounds nuw %"class.Imf_3_4::DeepScanLineOutputPart", ptr %3, i32 0, i32 0
  %5 = load ptr, ptr %4, align 8, !tbaa !12
  %6 = call noundef ptr @_ZNK7Imf_3_422DeepScanLineOutputFile8fileNameEv(ptr noundef nonnull align 8 dereferenceable(16) %5)
  ret ptr %6
}

declare noundef ptr @_ZNK7Imf_3_422DeepScanLineOutputFile8fileNameEv(ptr noundef nonnull align 8 dereferenceable(16)) #1

; Function Attrs: mustprogress uwtable
define noundef nonnull align 8 dereferenceable(49) ptr @_ZNK7Imf_3_422DeepScanLineOutputPart6headerEv(ptr noundef nonnull align 8 dereferenceable(8) %0) #4 align 2 {
  %2 = alloca ptr, align 8
  store ptr %0, ptr %2, align 8, !tbaa !3
  %3 = load ptr, ptr %2, align 8
  %4 = getelementptr inbounds nuw %"class.Imf_3_4::DeepScanLineOutputPart", ptr %3, i32 0, i32 0
  %5 = load ptr, ptr %4, align 8, !tbaa !12
  %6 = call noundef nonnull align 8 dereferenceable(49) ptr @_ZNK7Imf_3_422DeepScanLineOutputFile6headerEv(ptr noundef nonnull align 8 dereferenceable(16) %5)
  ret ptr %6
}

declare noundef nonnull align 8 dereferenceable(49) ptr @_ZNK7Imf_3_422DeepScanLineOutputFile6headerEv(ptr noundef nonnull align 8 dereferenceable(16)) #1

; Function Attrs: mustprogress uwtable
define void @_ZN7Imf_3_422DeepScanLineOutputPart14setFrameBufferERKNS_15DeepFrameBufferE(ptr noundef nonnull align 8 dereferenceable(8) %0, ptr noundef nonnull align 1 %1) #4 align 2 {
  %3 = alloca ptr, align 8
  %4 = alloca ptr, align 8
  store ptr %0, ptr %3, align 8, !tbaa !3
  store ptr %1, ptr %4, align 8, !tbaa !15
  %5 = load ptr, ptr %3, align 8
  %6 = getelementptr inbounds nuw %"class.Imf_3_4::DeepScanLineOutputPart", ptr %5, i32 0, i32 0
  %7 = load ptr, ptr %6, align 8, !tbaa !12
  %8 = load ptr, ptr %4, align 8, !tbaa !15
  call void @_ZN7Imf_3_422DeepScanLineOutputFile14setFrameBufferERKNS_15DeepFrameBufferE(ptr noundef nonnull align 8 dereferenceable(16) %7, ptr noundef nonnull align 1 %8)
  ret void
}

declare void @_ZN7Imf_3_422DeepScanLineOutputFile14setFrameBufferERKNS_15DeepFrameBufferE(ptr noundef nonnull align 8 dereferenceable(16), ptr noundef nonnull align 1) #1

; Function Attrs: mustprogress uwtable
define noundef nonnull align 1 ptr @_ZNK7Imf_3_422DeepScanLineOutputPart11frameBufferEv(ptr noundef nonnull align 8 dereferenceable(8) %0) #4 align 2 {
  %2 = alloca ptr, align 8
  store ptr %0, ptr %2, align 8, !tbaa !3
  %3 = load ptr, ptr %2, align 8
  %4 = getelementptr inbounds nuw %"class.Imf_3_4::DeepScanLineOutputPart", ptr %3, i32 0, i32 0
  %5 = load ptr, ptr %4, align 8, !tbaa !12
  %6 = call noundef nonnull align 1 ptr @_ZNK7Imf_3_422DeepScanLineOutputFile11frameBufferEv(ptr noundef nonnull align 8 dereferenceable(16) %5)
  ret ptr %6
}

declare noundef nonnull align 1 ptr @_ZNK7Imf_3_422DeepScanLineOutputFile11frameBufferEv(ptr noundef nonnull align 8 dereferenceable(16)) #1

; Function Attrs: mustprogress uwtable
define void @_ZN7Imf_3_422DeepScanLineOutputPart11writePixelsEi(ptr noundef nonnull align 8 dereferenceable(8) %0, i32 noundef %1) #4 align 2 {
  %3 = alloca ptr, align 8
  %4 = alloca i32, align 4
  store ptr %0, ptr %3, align 8, !tbaa !3
  store i32 %1, ptr %4, align 4, !tbaa !10
  %5 = load ptr, ptr %3, align 8
  %6 = getelementptr inbounds nuw %"class.Imf_3_4::DeepScanLineOutputPart", ptr %5, i32 0, i32 0
  %7 = load ptr, ptr %6, align 8, !tbaa !12
  %8 = load i32, ptr %4, align 4, !tbaa !10
  call void @_ZN7Imf_3_422DeepScanLineOutputFile11writePixelsEi(ptr noundef nonnull align 8 dereferenceable(16) %7, i32 noundef %8)
  ret void
}

declare void @_ZN7Imf_3_422DeepScanLineOutputFile11writePixelsEi(ptr noundef nonnull align 8 dereferenceable(16), i32 noundef) #1

; Function Attrs: mustprogress uwtable
define noundef i32 @_ZNK7Imf_3_422DeepScanLineOutputPart15currentScanLineEv(ptr noundef nonnull align 8 dereferenceable(8) %0) #4 align 2 {
  %2 = alloca ptr, align 8
  store ptr %0, ptr %2, align 8, !tbaa !3
  %3 = load ptr, ptr %2, align 8
  %4 = getelementptr inbounds nuw %"class.Imf_3_4::DeepScanLineOutputPart", ptr %3, i32 0, i32 0
  %5 = load ptr, ptr %4, align 8, !tbaa !12
  %6 = call noundef i32 @_ZNK7Imf_3_422DeepScanLineOutputFile15currentScanLineEv(ptr noundef nonnull align 8 dereferenceable(16) %5)
  ret i32 %6
}

declare noundef i32 @_ZNK7Imf_3_422DeepScanLineOutputFile15currentScanLineEv(ptr noundef nonnull align 8 dereferenceable(16)) #1

; Function Attrs: mustprogress uwtable
define void @_ZN7Imf_3_422DeepScanLineOutputPart10copyPixelsERNS_21DeepScanLineInputFileE(ptr noundef nonnull align 8 dereferenceable(8) %0, ptr noundef nonnull align 1 %1) #4 align 2 {
  %3 = alloca ptr, align 8
  %4 = alloca ptr, align 8
  store ptr %0, ptr %3, align 8, !tbaa !3
  store ptr %1, ptr %4, align 8, !tbaa !17
  %5 = load ptr, ptr %3, align 8
  %6 = getelementptr inbounds nuw %"class.Imf_3_4::DeepScanLineOutputPart", ptr %5, i32 0, i32 0
  %7 = load ptr, ptr %6, align 8, !tbaa !12
  %8 = load ptr, ptr %4, align 8, !tbaa !17
  call void @_ZN7Imf_3_422DeepScanLineOutputFile10copyPixelsERNS_21DeepScanLineInputFileE(ptr noundef nonnull align 8 dereferenceable(16) %7, ptr noundef nonnull align 1 %8)
  ret void
}

declare void @_ZN7Imf_3_422DeepScanLineOutputFile10copyPixelsERNS_21DeepScanLineInputFileE(ptr noundef nonnull align 8 dereferenceable(16), ptr noundef nonnull align 1) #1

; Function Attrs: mustprogress uwtable
define void @_ZN7Imf_3_422DeepScanLineOutputPart10copyPixelsERNS_21DeepScanLineInputPartE(ptr noundef nonnull align 8 dereferenceable(8) %0, ptr noundef nonnull align 1 %1) #4 align 2 {
  %3 = alloca ptr, align 8
  %4 = alloca ptr, align 8
  store ptr %0, ptr %3, align 8, !tbaa !3
  store ptr %1, ptr %4, align 8, !tbaa !19
  %5 = load ptr, ptr %3, align 8
  %6 = getelementptr inbounds nuw %"class.Imf_3_4::DeepScanLineOutputPart", ptr %5, i32 0, i32 0
  %7 = load ptr, ptr %6, align 8, !tbaa !12
  %8 = load ptr, ptr %4, align 8, !tbaa !19
  call void @_ZN7Imf_3_422DeepScanLineOutputFile10copyPixelsERNS_21DeepScanLineInputPartE(ptr noundef nonnull align 8 dereferenceable(16) %7, ptr noundef nonnull align 1 %8)
  ret void
}

declare void @_ZN7Imf_3_422DeepScanLineOutputFile10copyPixelsERNS_21DeepScanLineInputPartE(ptr noundef nonnull align 8 dereferenceable(16), ptr noundef nonnull align 1) #1

; Function Attrs: mustprogress uwtable
define void @_ZN7Imf_3_422DeepScanLineOutputPart18updatePreviewImageEPKNS_11PreviewRgbaE(ptr noundef nonnull align 8 dereferenceable(8) %0, ptr noundef %1) #4 align 2 {
  %3 = alloca ptr, align 8
  %4 = alloca ptr, align 8
  store ptr %0, ptr %3, align 8, !tbaa !3
  store ptr %1, ptr %4, align 8, !tbaa !21
  %5 = load ptr, ptr %3, align 8
  %6 = getelementptr inbounds nuw %"class.Imf_3_4::DeepScanLineOutputPart", ptr %5, i32 0, i32 0
  %7 = load ptr, ptr %6, align 8, !tbaa !12
  %8 = load ptr, ptr %4, align 8, !tbaa !21
  call void @_ZN7Imf_3_422DeepScanLineOutputFile18updatePreviewImageEPKNS_11PreviewRgbaE(ptr noundef nonnull align 8 dereferenceable(16) %7, ptr noundef %8)
  ret void
}

declare void @_ZN7Imf_3_422DeepScanLineOutputFile18updatePreviewImageEPKNS_11PreviewRgbaE(ptr noundef nonnull align 8 dereferenceable(16), ptr noundef) #1

; Function Attrs: uwtable
define internal void @_GLOBAL__sub_I_ImfDeepScanLineOutputPart.cpp() #0 section ".text.startup" {
  call void @__cxx_global_var_init()
  ret void
}


!llvm.module.flags = !{!0, !1, !2}

!0 = !{i32 1, !"wchar_size", i32 4}
!1 = !{i32 8, !"PIC Level", i32 2}
!2 = !{i32 7, !"uwtable", i32 2}
!3 = !{!4, !4, i64 0}
!4 = !{!"p1 _ZTSN7Imf_3_422DeepScanLineOutputPartE", !5, i64 0}
!5 = !{!"any pointer", !6, i64 0}
!6 = !{!"omnipotent char", !7, i64 0}
!7 = !{!"Simple C++ TBAA"}
!8 = !{!9, !9, i64 0}
!9 = !{!"p1 _ZTSN7Imf_3_419MultiPartOutputFileE", !5, i64 0}
!10 = !{!11, !11, i64 0}
!11 = !{!"int", !6, i64 0}
!12 = !{!13, !14, i64 0}
!13 = !{!"_ZTSN7Imf_3_422DeepScanLineOutputPartE", !14, i64 0}
!14 = !{!"p1 _ZTSN7Imf_3_422DeepScanLineOutputFileE", !5, i64 0}
!15 = !{!16, !16, i64 0}
!16 = !{!"p1 _ZTSN7Imf_3_415DeepFrameBufferE", !5, i64 0}
!17 = !{!18, !18, i64 0}
!18 = !{!"p1 _ZTSN7Imf_3_421DeepScanLineInputFileE", !5, i64 0}
!19 = !{!20, !20, i64 0}
!20 = !{!"p1 _ZTSN7Imf_3_421DeepScanLineInputPartE", !5, i64 0}
!21 = !{!22, !22, i64 0}
!22 = !{!"p1 _ZTSN7Imf_3_411PreviewRgbaE", !5, i64 0}
