; ModuleID = 'bench/openexr/original/ImfDeepScanLineOutputPart.ll'
source_filename = "bench/openexr/original/ImfDeepScanLineOutputPart.ll"
target datalayout = "e-m:e-p270:32:32-p271:32:32-p272:64:64-i64:64-i128:128-f80:128-n8:16:32:64-S128"
target triple = "x86_64-pc-linux-gnu"

%"class.std::ios_base::Init" = type { i8 }

@_ZStL8__ioinit = internal global %"class.std::ios_base::Init" zeroinitializer, align 1
@__dso_handle = external hidden global i8
@llvm.global_ctors = appending global [1 x { i32, ptr, ptr }] [{ i32, ptr, ptr } { i32 65535, ptr @_GLOBAL__sub_I_ImfDeepScanLineOutputPart.cpp, ptr null }]

@_ZN7Imf_3_422DeepScanLineOutputPartC1ERNS_19MultiPartOutputFileEi = unnamed_addr alias void (ptr, ptr, i32), ptr @_ZN7Imf_3_422DeepScanLineOutputPartC2ERNS_19MultiPartOutputFileEi

declare void @_ZNSt8ios_base4InitC1Ev(ptr noundef nonnull align 1 dereferenceable(1)) unnamed_addr #0

; Function Attrs: nounwind
declare void @_ZNSt8ios_base4InitD1Ev(ptr noundef nonnull align 1 dereferenceable(1)) unnamed_addr #1

; Function Attrs: nofree nounwind
declare i32 @__cxa_atexit(ptr, ptr, ptr) local_unnamed_addr #2

; Function Attrs: mustprogress uwtable
define void @_ZN7Imf_3_422DeepScanLineOutputPartC2ERNS_19MultiPartOutputFileEi(ptr noundef nonnull writeonly align 8 captures(none) dereferenceable(8) initializes((0, 8)) %0, ptr noundef nonnull align 8 dereferenceable(16) %1, i32 noundef %2) unnamed_addr #3 align 2 {
  %4 = tail call noundef ptr @_ZN7Imf_3_419MultiPartOutputFile13getOutputPartINS_22DeepScanLineOutputFileEEEPT_i(ptr noundef nonnull align 8 dereferenceable(16) %1, i32 noundef %2)
  store ptr %4, ptr %0, align 8, !tbaa !3
  ret void
}

declare hidden noundef ptr @_ZN7Imf_3_419MultiPartOutputFile13getOutputPartINS_22DeepScanLineOutputFileEEEPT_i(ptr noundef nonnull align 8 dereferenceable(16), i32 noundef) local_unnamed_addr #0

; Function Attrs: mustprogress uwtable
define noundef ptr @_ZNK7Imf_3_422DeepScanLineOutputPart8fileNameEv(ptr noundef nonnull readonly align 8 captures(none) dereferenceable(8) %0) local_unnamed_addr #3 align 2 {
  %2 = load ptr, ptr %0, align 8, !tbaa !3
  %3 = tail call noundef ptr @_ZNK7Imf_3_422DeepScanLineOutputFile8fileNameEv(ptr noundef nonnull align 8 dereferenceable(16) %2)
  ret ptr %3
}

declare noundef ptr @_ZNK7Imf_3_422DeepScanLineOutputFile8fileNameEv(ptr noundef nonnull align 8 dereferenceable(16)) local_unnamed_addr #0

; Function Attrs: mustprogress uwtable
define noundef nonnull align 8 dereferenceable(49) ptr @_ZNK7Imf_3_422DeepScanLineOutputPart6headerEv(ptr noundef nonnull readonly align 8 captures(none) dereferenceable(8) %0) local_unnamed_addr #3 align 2 {
  %2 = load ptr, ptr %0, align 8, !tbaa !3
  %3 = tail call noundef nonnull align 8 dereferenceable(49) ptr @_ZNK7Imf_3_422DeepScanLineOutputFile6headerEv(ptr noundef nonnull align 8 dereferenceable(16) %2)
  ret ptr %3
}

declare noundef nonnull align 8 dereferenceable(49) ptr @_ZNK7Imf_3_422DeepScanLineOutputFile6headerEv(ptr noundef nonnull align 8 dereferenceable(16)) local_unnamed_addr #0

; Function Attrs: mustprogress uwtable
define void @_ZN7Imf_3_422DeepScanLineOutputPart14setFrameBufferERKNS_15DeepFrameBufferE(ptr noundef nonnull readonly align 8 captures(none) dereferenceable(8) %0, ptr noundef nonnull align 1 %1) local_unnamed_addr #3 align 2 {
  %3 = load ptr, ptr %0, align 8, !tbaa !3
  tail call void @_ZN7Imf_3_422DeepScanLineOutputFile14setFrameBufferERKNS_15DeepFrameBufferE(ptr noundef nonnull align 8 dereferenceable(16) %3, ptr noundef nonnull align 1 %1)
  ret void
}

declare void @_ZN7Imf_3_422DeepScanLineOutputFile14setFrameBufferERKNS_15DeepFrameBufferE(ptr noundef nonnull align 8 dereferenceable(16), ptr noundef nonnull align 1) local_unnamed_addr #0

; Function Attrs: mustprogress uwtable
define noundef nonnull align 1 ptr @_ZNK7Imf_3_422DeepScanLineOutputPart11frameBufferEv(ptr noundef nonnull readonly align 8 captures(none) dereferenceable(8) %0) local_unnamed_addr #3 align 2 {
  %2 = load ptr, ptr %0, align 8, !tbaa !3
  %3 = tail call noundef nonnull align 1 ptr @_ZNK7Imf_3_422DeepScanLineOutputFile11frameBufferEv(ptr noundef nonnull align 8 dereferenceable(16) %2)
  ret ptr %3
}

declare noundef nonnull align 1 ptr @_ZNK7Imf_3_422DeepScanLineOutputFile11frameBufferEv(ptr noundef nonnull align 8 dereferenceable(16)) local_unnamed_addr #0

; Function Attrs: mustprogress uwtable
define void @_ZN7Imf_3_422DeepScanLineOutputPart11writePixelsEi(ptr noundef nonnull readonly align 8 captures(none) dereferenceable(8) %0, i32 noundef %1) local_unnamed_addr #3 align 2 {
  %3 = load ptr, ptr %0, align 8, !tbaa !3
  tail call void @_ZN7Imf_3_422DeepScanLineOutputFile11writePixelsEi(ptr noundef nonnull align 8 dereferenceable(16) %3, i32 noundef %1)
  ret void
}

declare void @_ZN7Imf_3_422DeepScanLineOutputFile11writePixelsEi(ptr noundef nonnull align 8 dereferenceable(16), i32 noundef) local_unnamed_addr #0

; Function Attrs: mustprogress uwtable
define noundef i32 @_ZNK7Imf_3_422DeepScanLineOutputPart15currentScanLineEv(ptr noundef nonnull readonly align 8 captures(none) dereferenceable(8) %0) local_unnamed_addr #3 align 2 {
  %2 = load ptr, ptr %0, align 8, !tbaa !3
  %3 = tail call noundef i32 @_ZNK7Imf_3_422DeepScanLineOutputFile15currentScanLineEv(ptr noundef nonnull align 8 dereferenceable(16) %2)
  ret i32 %3
}

declare noundef i32 @_ZNK7Imf_3_422DeepScanLineOutputFile15currentScanLineEv(ptr noundef nonnull align 8 dereferenceable(16)) local_unnamed_addr #0

; Function Attrs: mustprogress uwtable
define void @_ZN7Imf_3_422DeepScanLineOutputPart10copyPixelsERNS_21DeepScanLineInputFileE(ptr noundef nonnull readonly align 8 captures(none) dereferenceable(8) %0, ptr noundef nonnull align 1 %1) local_unnamed_addr #3 align 2 {
  %3 = load ptr, ptr %0, align 8, !tbaa !3
  tail call void @_ZN7Imf_3_422DeepScanLineOutputFile10copyPixelsERNS_21DeepScanLineInputFileE(ptr noundef nonnull align 8 dereferenceable(16) %3, ptr noundef nonnull align 1 %1)
  ret void
}

declare void @_ZN7Imf_3_422DeepScanLineOutputFile10copyPixelsERNS_21DeepScanLineInputFileE(ptr noundef nonnull align 8 dereferenceable(16), ptr noundef nonnull align 1) local_unnamed_addr #0

; Function Attrs: mustprogress uwtable
define void @_ZN7Imf_3_422DeepScanLineOutputPart10copyPixelsERNS_21DeepScanLineInputPartE(ptr noundef nonnull readonly align 8 captures(none) dereferenceable(8) %0, ptr noundef nonnull align 1 %1) local_unnamed_addr #3 align 2 {
  %3 = load ptr, ptr %0, align 8, !tbaa !3
  tail call void @_ZN7Imf_3_422DeepScanLineOutputFile10copyPixelsERNS_21DeepScanLineInputPartE(ptr noundef nonnull align 8 dereferenceable(16) %3, ptr noundef nonnull align 1 %1)
  ret void
}

declare void @_ZN7Imf_3_422DeepScanLineOutputFile10copyPixelsERNS_21DeepScanLineInputPartE(ptr noundef nonnull align 8 dereferenceable(16), ptr noundef nonnull align 1) local_unnamed_addr #0

; Function Attrs: mustprogress uwtable
define void @_ZN7Imf_3_422DeepScanLineOutputPart18updatePreviewImageEPKNS_11PreviewRgbaE(ptr noundef nonnull readonly align 8 captures(none) dereferenceable(8) %0, ptr noundef %1) local_unnamed_addr #3 align 2 {
  %3 = load ptr, ptr %0, align 8, !tbaa !3
  tail call void @_ZN7Imf_3_422DeepScanLineOutputFile18updatePreviewImageEPKNS_11PreviewRgbaE(ptr noundef nonnull align 8 dereferenceable(16) %3, ptr noundef %1)
  ret void
}

declare void @_ZN7Imf_3_422DeepScanLineOutputFile18updatePreviewImageEPKNS_11PreviewRgbaE(ptr noundef nonnull align 8 dereferenceable(16), ptr noundef) local_unnamed_addr #0

; Function Attrs: uwtable
define internal void @_GLOBAL__sub_I_ImfDeepScanLineOutputPart.cpp() #4 section ".text.startup" {
  tail call void @_ZNSt8ios_base4InitC1Ev(ptr noundef nonnull align 1 dereferenceable(1) @_ZStL8__ioinit)
  %1 = tail call i32 @__cxa_atexit(ptr nonnull @_ZNSt8ios_base4InitD1Ev, ptr nonnull @_ZStL8__ioinit, ptr nonnull @__dso_handle) #5
  ret void
}


!llvm.module.flags = !{!0, !1, !2}

!0 = !{i32 1, !"wchar_size", i32 4}
!1 = !{i32 8, !"PIC Level", i32 2}
!2 = !{i32 7, !"uwtable", i32 2}
!3 = !{!4, !5, i64 0}
!4 = !{!"_ZTSN7Imf_3_422DeepScanLineOutputPartE", !5, i64 0}
!5 = !{!"p1 _ZTSN7Imf_3_422DeepScanLineOutputFileE", !6, i64 0}
!6 = !{!"any pointer", !7, i64 0}
!7 = !{!"omnipotent char", !8, i64 0}
!8 = !{!"Simple C++ TBAA"}
